; Function Attrs: nounwind uwtable
define internal ptr @_io_FileIO_tell(ptr noundef captures(none) %0, ptr readnone captures(none) %1) #1 {
  %3 = getelementptr inbounds nuw i8, ptr %0, i64 16
  %4 = load i32, ptr %3, align 8, !tbaa !4
  %5 = icmp slt i32 %4, 0
  br i1 %5, label %6, label %8

6:                                                ; preds = %2
  %7 = load ptr, ptr @PyExc_ValueError, align 8, !tbaa !21
  tail call void @PyErr_SetString(ptr noundef %7, ptr noundef nonnull @.str.35) #10
  br label %_io_FileIO_tell_impl.exit

8:                                                ; preds = %2
  %9 = tail call ptr @PyEval_SaveThread() #10
  %10 = tail call i64 @lseek64(i32 noundef %4, i64 noundef 0, i32 noundef 1) #10
  tail call void @PyEval_RestoreThread(ptr noundef %9) #10
  %11 = getelementptr inbounds nuw i8, ptr %0, i64 20
  %12 = load i8, ptr %11, align 4
  %.mask.i.i = and i8 %12, 32
  %.not17.i.i = icmp eq i8 %.mask.i.i, 0
  br i1 %.not17.i.i, label %18, label %13

13:                                               ; preds = %8
  %14 = icmp sgt i64 %10, -1
  %15 = select i1 %14, i8 16, i8 0
  %16 = and i8 %12, -49
  %17 = or disjoint i8 %16, %15
  store i8 %17, ptr %11, align 4
  br label %18

18:                                               ; preds = %13, %8
  %19 = icmp slt i64 %10, 0
  br i1 %19, label %20, label %23

20:                                               ; preds = %18
  %21 = load ptr, ptr @PyExc_OSError, align 8, !tbaa !21
  %22 = tail call ptr @PyErr_SetFromErrno(ptr noundef %21) #10
  br label %_io_FileIO_tell_impl.exit

23:                                               ; preds = %18
  %24 = tail call ptr @PyLong_FromLong(i64 noundef %10) #10
  br label %_io_FileIO_tell_impl.exit

_io_FileIO_tell_impl.exit:                        ; preds = %6, %20, %23
  %.0.i = phi ptr [ null, %6 ], [ %24, %23 ], [ %22, %20 ]
  ret ptr %.0.i
}